target datalayout = "e-m:e-p270:32:32-p271:32:32-p272:64:64-i64:64-i128:128-f80:128-n8:16:32:64-S128"
target triple = "x86_64-pc-linux-gnu"

%struct.dict = type { ptr, [2 x ptr], [2 x i64], i64, i16, [2 x i8], i16, [0 x ptr] }
%struct.dictExpireMetadata = type { %struct.ExpireMeta, ptr, ptr }
%struct.ExpireMeta = type { i32, i16, i16, ptr }
%struct.redisObject = type { i32, i32, ptr }

; Function Attrs: inlinehint nounwind uwtable
define internal ptr @ebCreate() #7 {
  ret ptr null
}

; Function Attrs: nounwind uwtable
define dso_local void @initDictExpireMetadata(ptr noundef %0, ptr noundef %1) #1 {
  %3 = alloca ptr, align 8
  %4 = alloca ptr, align 8
  %5 = alloca ptr, align 8
  %6 = alloca ptr, align 8
  store ptr %0, ptr %3, align 8, !tbaa !33
  store ptr %1, ptr %4, align 8, !tbaa !15
  call void @llvm.lifetime.start.p0(i64 8, ptr %5) #12
  %7 = load ptr, ptr %4, align 8, !tbaa !15
  %8 = getelementptr inbounds nuw %struct.redisObject, ptr %7, i32 0, i32 2
  %9 = load ptr, ptr %8, align 8, !tbaa !17
  store ptr %9, ptr %5, align 8, !tbaa !5
  call void @llvm.lifetime.start.p0(i64 8, ptr %6) #12
  %10 = load ptr, ptr %5, align 8, !tbaa !5
  %11 = getelementptr inbounds nuw %struct.dict, ptr %10, i32 0, i32 7
  store ptr %11, ptr %6, align 8, !tbaa !11
  %12 = load ptr, ptr %3, align 8, !tbaa !33
  %13 = load ptr, ptr %6, align 8, !tbaa !11
  %14 = getelementptr inbounds nuw %struct.dictExpireMetadata, ptr %13, i32 0, i32 2
  store ptr %12, ptr %14, align 8, !tbaa !123
  %15 = call ptr @ebCreate()
  %16 = load ptr, ptr %6, align 8, !tbaa !11
  %17 = getelementptr inbounds nuw %struct.dictExpireMetadata, ptr %16, i32 0, i32 1
  store ptr %15, ptr %17, align 8, !tbaa !74
  %18 = load ptr, ptr %6, align 8, !tbaa !11
  %19 = getelementptr inbounds nuw %struct.dictExpireMetadata, ptr %18, i32 0, i32 0
  %20 = getelementptr inbounds nuw %struct.ExpireMeta, ptr %19, i32 0, i32 2
  %21 = load i16, ptr %20, align 2
  %22 = and i16 %21, -257
  %23 = or i16 %22, 256
  store i16 %23, ptr %20, align 2
  call void @llvm.lifetime.end.p0(i64 8, ptr %6) #12
  call void @llvm.lifetime.end.p0(i64 8, ptr %5) #12
  ret void
}