; Function Attrs: mustprogress nofree norecurse nosync nounwind willreturn memory(readwrite, inaccessiblemem: none) uwtable
define dso_local void @initDictExpireMetadata(ptr noundef %0, ptr noundef readonly captures(none) %1) local_unnamed_addr #9 {
  %3 = getelementptr inbounds nuw i8, ptr %1, i64 8
  %4 = load ptr, ptr %3, align 8, !tbaa !10
  %5 = getelementptr inbounds nuw i8, ptr %4, i64 80
  store ptr %0, ptr %5, align 8, !tbaa !105
  %6 = getelementptr inbounds nuw i8, ptr %4, i64 72
  store ptr null, ptr %6, align 8, !tbaa !58
  %7 = getelementptr inbounds nuw i8, ptr %4, i64 62
  %8 = load i16, ptr %7, align 2
  %9 = or i16 %8, 256
  store i16 %9, ptr %7, align 2
  ret void
}